target datalayout = "e-m:e-p270:32:32-p271:32:32-p272:64:64-i64:64-i128:128-f80:128-n8:16:32:64-S128"
target triple = "x86_64-pc-linux-gnu"

%struct.mbedtls_mpi = type { i32, i64, ptr }

; Function Attrs: mustprogress nounwind uwtable
define hidden i32 @mbedtls_mpi_mod_int(ptr noundef %0, ptr noundef %1, i64 noundef %2) #0 {
  %4 = alloca i32, align 4
  %5 = alloca ptr, align 8
  %6 = alloca ptr, align 8
  %7 = alloca i64, align 8
  %8 = alloca i64, align 8
  %9 = alloca i64, align 8
  %10 = alloca i64, align 8
  %11 = alloca i64, align 8
  %12 = alloca i32, align 4
  store ptr %0, ptr %5, align 8, !tbaa !15
  store ptr %1, ptr %6, align 8, !tbaa !3
  store i64 %2, ptr %7, align 8, !tbaa !16
  call void @llvm.lifetime.start.p0(i64 8, ptr %8) #10
  call void @llvm.lifetime.start.p0(i64 8, ptr %9) #10
  call void @llvm.lifetime.start.p0(i64 8, ptr %10) #10
  call void @llvm.lifetime.start.p0(i64 8, ptr %11) #10
  br label %13

13:                                               ; preds = %3
  br label %14

14:                                               ; preds = %13
  br label %15

15:                                               ; preds = %14
  br label %16

16:                                               ; preds = %15
  br label %17

17:                                               ; preds = %16
  br label %18

18:                                               ; preds = %17
  %19 = load i64, ptr %7, align 8, !tbaa !16
  %20 = icmp eq i64 %19, 0
  br i1 %20, label %21, label %22

21:                                               ; preds = %18
  store i32 -12, ptr %4, align 4
  store i32 1, ptr %12, align 4
  br label %103

22:                                               ; preds = %18
  %23 = load i64, ptr %7, align 8, !tbaa !16
  %24 = icmp slt i64 %23, 0
  br i1 %24, label %25, label %26

25:                                               ; preds = %22
  store i32 -10, ptr %4, align 4
  store i32 1, ptr %12, align 4
  br label %103

26:                                               ; preds = %22
  %27 = load i64, ptr %7, align 8, !tbaa !16
  %28 = icmp eq i64 %27, 1
  br i1 %28, label %29, label %31

29:                                               ; preds = %26
  %30 = load ptr, ptr %5, align 8, !tbaa !15
  store i64 0, ptr %30, align 8, !tbaa !16
  store i32 0, ptr %4, align 4
  store i32 1, ptr %12, align 4
  br label %103

31:                                               ; preds = %26
  %32 = load i64, ptr %7, align 8, !tbaa !16
  %33 = icmp eq i64 %32, 2
  br i1 %33, label %34, label %42

34:                                               ; preds = %31
  %35 = load ptr, ptr %6, align 8, !tbaa !3
  %36 = getelementptr inbounds nuw %struct.mbedtls_mpi, ptr %35, i32 0, i32 2
  %37 = load ptr, ptr %36, align 8, !tbaa !14
  %38 = getelementptr inbounds i64, ptr %37, i64 0
  %39 = load i64, ptr %38, align 8, !tbaa !16
  %40 = and i64 %39, 1
  %41 = load ptr, ptr %5, align 8, !tbaa !15
  store i64 %40, ptr %41, align 8, !tbaa !16
  store i32 0, ptr %4, align 4
  store i32 1, ptr %12, align 4
  br label %103

42:                                               ; preds = %31
  %43 = load ptr, ptr %6, align 8, !tbaa !3
  %44 = getelementptr inbounds nuw %struct.mbedtls_mpi, ptr %43, i32 0, i32 1
  %45 = load i64, ptr %44, align 8, !tbaa !13
  store i64 %45, ptr %8, align 8, !tbaa !16
  store i64 0, ptr %10, align 8, !tbaa !16
  br label %46

46:                                               ; preds = %85, %42
  %47 = load i64, ptr %8, align 8, !tbaa !16
  %48 = icmp ugt i64 %47, 0
  br i1 %48, label %49, label %88

49:                                               ; preds = %46
  %50 = load ptr, ptr %6, align 8, !tbaa !3
  %51 = getelementptr inbounds nuw %struct.mbedtls_mpi, ptr %50, i32 0, i32 2
  %52 = load ptr, ptr %51, align 8, !tbaa !14
  %53 = load i64, ptr %8, align 8, !tbaa !16
  %54 = sub i64 %53, 1
  %55 = getelementptr inbounds nuw i64, ptr %52, i64 %54
  %56 = load i64, ptr %55, align 8, !tbaa !16
  store i64 %56, ptr %9, align 8, !tbaa !16
  %57 = load i64, ptr %10, align 8, !tbaa !16
  %58 = shl i64 %57, 32
  %59 = load i64, ptr %9, align 8, !tbaa !16
  %60 = lshr i64 %59, 32
  %61 = or i64 %58, %60
  store i64 %61, ptr %10, align 8, !tbaa !16
  %62 = load i64, ptr %10, align 8, !tbaa !16
  %63 = load i64, ptr %7, align 8, !tbaa !16
  %64 = udiv i64 %62, %63
  store i64 %64, ptr %11, align 8, !tbaa !16
  %65 = load i64, ptr %11, align 8, !tbaa !16
  %66 = load i64, ptr %7, align 8, !tbaa !16
  %67 = mul i64 %65, %66
  %68 = load i64, ptr %10, align 8, !tbaa !16
  %69 = sub i64 %68, %67
  store i64 %69, ptr %10, align 8, !tbaa !16
  %70 = load i64, ptr %9, align 8, !tbaa !16
  %71 = shl i64 %70, 32
  store i64 %71, ptr %9, align 8, !tbaa !16
  %72 = load i64, ptr %10, align 8, !tbaa !16
  %73 = shl i64 %72, 32
  %74 = load i64, ptr %9, align 8, !tbaa !16
  %75 = lshr i64 %74, 32
  %76 = or i64 %73, %75
  store i64 %76, ptr %10, align 8, !tbaa !16
  %77 = load i64, ptr %10, align 8, !tbaa !16
  %78 = load i64, ptr %7, align 8, !tbaa !16
  %79 = udiv i64 %77, %78
  store i64 %79, ptr %11, align 8, !tbaa !16
  %80 = load i64, ptr %11, align 8, !tbaa !16
  %81 = load i64, ptr %7, align 8, !tbaa !16
  %82 = mul i64 %80, %81
  %83 = load i64, ptr %10, align 8, !tbaa !16
  %84 = sub i64 %83, %82
  store i64 %84, ptr %10, align 8, !tbaa !16
  br label %85

85:                                               ; preds = %49
  %86 = load i64, ptr %8, align 8, !tbaa !16
  %87 = add i64 %86, -1
  store i64 %87, ptr %8, align 8, !tbaa !16
  br label %46, !llvm.loop !74

88:                                               ; preds = %46
  %89 = load ptr, ptr %6, align 8, !tbaa !3
  %90 = getelementptr inbounds nuw %struct.mbedtls_mpi, ptr %89, i32 0, i32 0
  %91 = load i32, ptr %90, align 8, !tbaa !8
  %92 = icmp slt i32 %91, 0
  br i1 %92, label %93, label %100

93:                                               ; preds = %88
  %94 = load i64, ptr %10, align 8, !tbaa !16
  %95 = icmp ne i64 %94, 0
  br i1 %95, label %96, label %100

96:                                               ; preds = %93
  %97 = load i64, ptr %7, align 8, !tbaa !16
  %98 = load i64, ptr %10, align 8, !tbaa !16
  %99 = sub i64 %97, %98
  store i64 %99, ptr %10, align 8, !tbaa !16
  br label %100

100:                                              ; preds = %96, %93, %88
  %101 = load i64, ptr %10, align 8, !tbaa !16
  %102 = load ptr, ptr %5, align 8, !tbaa !15
  store i64 %101, ptr %102, align 8, !tbaa !16
  store i32 0, ptr %4, align 4
  store i32 1, ptr %12, align 4
  br label %103

103:                                              ; preds = %100, %34, %29, %25, %21
  call void @llvm.lifetime.end.p0(i64 8, ptr %11) #10
  call void @llvm.lifetime.end.p0(i64 8, ptr %10) #10
  call void @llvm.lifetime.end.p0(i64 8, ptr %9) #10
  call void @llvm.lifetime.end.p0(i64 8, ptr %8) #10
  %104 = load i32, ptr %4, align 4
  ret i32 %104
}