; Function Attrs: mustprogress nofree norecurse nosync nounwind memory(read, argmem: readwrite, inaccessiblemem: none) uwtable
define hidden range(i32 -12, 1) i32 @mbedtls_mpi_mod_int(ptr noundef writeonly captures(none) %0, ptr noundef readonly captures(none) %1, i64 noundef %2) local_unnamed_addr #10 {
  %4 = icmp eq i64 %2, 0
  br i1 %4, label %31, label %5

5:                                                ; preds = %3
  %6 = icmp slt i64 %2, 0
  br i1 %6, label %31, label %7

7:                                                ; preds = %5
  switch i64 %2, label %13 [
    i64 1, label %.sink.split
    i64 2, label %8
  ]

8:                                                ; preds = %7
  %9 = getelementptr inbounds nuw i8, ptr %1, i64 16
  %10 = load ptr, ptr %9, align 8, !tbaa !11
  %11 = load i64, ptr %10, align 8, !tbaa !13
  %12 = and i64 %11, 1
  br label %.sink.split

13:                                               ; preds = %7
  %14 = getelementptr inbounds nuw i8, ptr %1, i64 8
  %15 = load i64, ptr %14, align 8, !tbaa !12
  %.not40 = icmp eq i64 %15, 0
  br i1 %.not40, label %._crit_edge, label %.lr.ph

.lr.ph:                                           ; preds = %13
  %16 = getelementptr inbounds nuw i8, ptr %1, i64 16
  %17 = load ptr, ptr %16, align 8, !tbaa !11
  %invariant.gep = getelementptr i8, ptr %17, i64 -8
  br label %18

18:                                               ; preds = %.lr.ph, %18
  %.03442 = phi i64 [ 0, %.lr.ph ], [ %25, %18 ]
  %.03541 = phi i64 [ %15, %.lr.ph ], [ %26, %18 ]
  %gep = getelementptr i64, ptr %invariant.gep, i64 %.03541
  %19 = load i64, ptr %gep, align 8, !tbaa !13
  %.fr39 = freeze i64 %19
  %20 = tail call i64 @llvm.fshl.i64(i64 %.03442, i64 %.fr39, i64 32)
  %21 = urem i64 %20, %2
  %22 = and i64 %.fr39, 4294967295
  %23 = shl i64 %21, 32
  %24 = or disjoint i64 %23, %22
  %25 = urem i64 %24, %2
  %26 = add i64 %.03541, -1
  %.not = icmp eq i64 %26, 0
  br i1 %.not, label %._crit_edge, label %18, !llvm.loop !27

._crit_edge:                                      ; preds = %18, %13
  %.034.lcssa = phi i64 [ 0, %13 ], [ %25, %18 ]
  %27 = load i32, ptr %1, align 8, !tbaa !3
  %28 = icmp slt i32 %27, 0
  %29 = icmp ne i64 %.034.lcssa, 0
  %or.cond = select i1 %28, i1 %29, i1 false
  %30 = sub i64 %2, %.034.lcssa
  %spec.select = select i1 %or.cond, i64 %30, i64 %.034.lcssa
  br label %.sink.split

.sink.split:                                      ; preds = %7, %8, %._crit_edge
  %spec.select.sink = phi i64 [ %spec.select, %._crit_edge ], [ %12, %8 ], [ 0, %7 ]
  store i64 %spec.select.sink, ptr %0, align 8, !tbaa !13
  br label %31

31:                                               ; preds = %.sink.split, %5, %3
  %.0 = phi i32 [ -12, %3 ], [ -10, %5 ], [ 0, %.sink.split ]
  ret i32 %.0
}